; Function Attrs: nounwind sspstrong uwtable
define internal i64 @env_delete_if(i64 noundef %0) #0 {
  %2 = tail call i32 @rb_block_given_p() #28
  %.not = icmp eq i32 %2, 0
  br i1 %.not, label %3, label %7

3:                                                ; preds = %1
  %4 = tail call i64 @rb_frame_this_func() #28
  %5 = tail call i64 @rb_id2sym(i64 noundef %4) #28
  %6 = tail call i64 @rb_enumeratorize_with_size(i64 noundef %0, i64 noundef %5, i32 noundef 0, ptr noundef null, ptr noundef nonnull @rb_env_size) #28
  br label %10

7:                                                ; preds = %1
  %8 = tail call i64 @env_reject_bang(i64 noundef %0)
  %9 = load i64, ptr @envtbl, align 8, !tbaa !7
  br label %10

10:                                               ; preds = %7, %3
  %.0 = phi i64 [ %9, %7 ], [ %6, %3 ]
  ret i64 %.0
}